target datalayout = "e-m:e-p270:32:32-p271:32:32-p272:64:64-i64:64-i128:128-f80:128-n8:16:32:64-S128"
target triple = "x86_64-pc-linux-gnu"

%struct.PLpgSQL_execstate = type { ptr, ptr, ptr, i64, i8, i32, i32, i8, i8, i8, i8, ptr, ptr, ptr, ptr, ptr, ptr, ptr, i32, i32, ptr, ptr, ptr, ptr, ptr, ptr, ptr, ptr, ptr, ptr, i64, ptr, ptr, ptr, ptr, ptr }
%struct.PLpgSQL_datum = type { i32, i32 }
%struct.PLpgSQL_var = type { i32, i32, ptr, i32, i8, i8, ptr, ptr, ptr, i32, i32, i64, i8, i8, i32 }
%struct.PLpgSQL_type = type { ptr, i32, i32, i16, i8, i8, i32, i8, i32, ptr, ptr, i64 }
%struct.ParamListInfoData = type { ptr, ptr, ptr, ptr, ptr, ptr, ptr, i32, [0 x %struct.ParamExternData] }
%struct.ParamExternData = type { i64, i8, i16, i32 }
%struct.PLpgSQL_expr = type { ptr, i32, ptr, ptr, i32, i8, ptr, ptr, ptr, i32, i32, i8, i32, ptr, ptr, ptr, i32, ptr, i8, i32 }
%struct.Expr = type { i32 }
%struct.Param = type { %struct.Expr, i32, i32, i32, i32, i32, i32 }
%struct.ExprEvalStep = type { i64, ptr, ptr, %union.anon.1 }
%union.anon.1 = type { %struct.anon.26 }
%struct.anon.26 = type { ptr, ptr, i32, i32, ptr, ptr }
%struct.anon.15 = type { ptr, ptr, ptr, i32, i32 }

; Function Attrs: nounwind uwtable
define internal void @plpgsql_param_compile(ptr noundef %0, ptr noundef %1, ptr noundef %2, ptr noundef %3, ptr noundef %4) #0 {
  %6 = alloca ptr, align 8
  %7 = alloca ptr, align 8
  %8 = alloca ptr, align 8
  %9 = alloca ptr, align 8
  %10 = alloca ptr, align 8
  %11 = alloca ptr, align 8
  %12 = alloca ptr, align 8
  %13 = alloca i32, align 4
  %14 = alloca ptr, align 8
  %15 = alloca %struct.ExprEvalStep, align 8
  %16 = alloca i8, align 1
  store ptr %0, ptr %6, align 8
  store ptr %1, ptr %7, align 8
  store ptr %2, ptr %8, align 8
  store ptr %3, ptr %9, align 8
  store ptr %4, ptr %10, align 8
  call void @llvm.lifetime.start.p0(i64 8, ptr %11) #12
  call void @llvm.lifetime.start.p0(i64 8, ptr %12) #12
  call void @llvm.lifetime.start.p0(i64 4, ptr %13) #12
  call void @llvm.lifetime.start.p0(i64 8, ptr %14) #12
  call void @llvm.lifetime.start.p0(i64 64, ptr %15) #12
  %17 = load ptr, ptr %6, align 8
  %18 = getelementptr inbounds nuw %struct.ParamListInfoData, ptr %17, i32 0, i32 1
  %19 = load ptr, ptr %18, align 8
  store ptr %19, ptr %11, align 8
  %20 = load ptr, ptr %6, align 8
  %21 = getelementptr inbounds nuw %struct.ParamListInfoData, ptr %20, i32 0, i32 5
  %22 = load ptr, ptr %21, align 8
  store ptr %22, ptr %12, align 8
  %23 = load ptr, ptr %7, align 8
  %24 = getelementptr inbounds nuw %struct.Param, ptr %23, i32 0, i32 2
  %25 = load i32, ptr %24, align 4
  %26 = sub i32 %25, 1
  store i32 %26, ptr %13, align 4
  %27 = load ptr, ptr %11, align 8
  %28 = getelementptr inbounds nuw %struct.PLpgSQL_execstate, ptr %27, i32 0, i32 20
  %29 = load ptr, ptr %28, align 8
  %30 = load i32, ptr %13, align 4
  %31 = sext i32 %30 to i64
  %32 = getelementptr inbounds ptr, ptr %29, i64 %31
  %33 = load ptr, ptr %32, align 8
  store ptr %33, ptr %14, align 8
  %34 = getelementptr inbounds nuw %struct.ExprEvalStep, ptr %15, i32 0, i32 0
  store i64 51, ptr %34, align 8
  %35 = load ptr, ptr %9, align 8
  %36 = getelementptr inbounds nuw %struct.ExprEvalStep, ptr %15, i32 0, i32 1
  store ptr %35, ptr %36, align 8
  %37 = load ptr, ptr %10, align 8
  %38 = getelementptr inbounds nuw %struct.ExprEvalStep, ptr %15, i32 0, i32 2
  store ptr %37, ptr %38, align 8
  %39 = load ptr, ptr %14, align 8
  %40 = getelementptr inbounds nuw %struct.PLpgSQL_datum, ptr %39, i32 0, i32 0
  %41 = load i32, ptr %40, align 4
  %42 = icmp eq i32 %41, 0
  br i1 %42, label %43, label %79

43:                                               ; preds = %5
  call void @llvm.lifetime.start.p0(i64 1, ptr %16) #12
  %44 = load ptr, ptr %14, align 8
  %45 = getelementptr inbounds nuw %struct.PLpgSQL_var, ptr %44, i32 0, i32 7
  %46 = load ptr, ptr %45, align 8
  %47 = getelementptr inbounds nuw %struct.PLpgSQL_type, ptr %46, i32 0, i32 3
  %48 = load i16, ptr %47, align 8
  %49 = sext i16 %48 to i32
  %50 = icmp eq i32 %49, -1
  %51 = zext i1 %50 to i8
  store i8 %51, ptr %16, align 1
  %52 = load i8, ptr %16, align 1, !range !3, !noundef !4
  %53 = trunc i8 %52 to i1
  br i1 %53, label %54, label %68

54:                                               ; preds = %43
  %55 = load i32, ptr %13, align 4
  %56 = load ptr, ptr %12, align 8
  %57 = getelementptr inbounds nuw %struct.PLpgSQL_expr, ptr %56, i32 0, i32 4
  %58 = load i32, ptr %57, align 8
  %59 = icmp eq i32 %55, %58
  br i1 %59, label %60, label %68

60:                                               ; preds = %54
  %61 = load ptr, ptr %12, align 8
  %62 = getelementptr inbounds nuw %struct.PLpgSQL_expr, ptr %61, i32 0, i32 8
  %63 = load ptr, ptr %62, align 8
  %64 = icmp ne ptr %63, null
  br i1 %64, label %65, label %68

65:                                               ; preds = %60
  %66 = getelementptr inbounds nuw %struct.ExprEvalStep, ptr %15, i32 0, i32 3
  %67 = getelementptr inbounds nuw %struct.anon.15, ptr %66, i32 0, i32 0
  store ptr @plpgsql_param_eval_var_check, ptr %67, align 8
  br label %78

68:                                               ; preds = %60, %54, %43
  %69 = load i8, ptr %16, align 1, !range !3, !noundef !4
  %70 = trunc i8 %69 to i1
  br i1 %70, label %71, label %74

71:                                               ; preds = %68
  %72 = getelementptr inbounds nuw %struct.ExprEvalStep, ptr %15, i32 0, i32 3
  %73 = getelementptr inbounds nuw %struct.anon.15, ptr %72, i32 0, i32 0
  store ptr @plpgsql_param_eval_var_ro, ptr %73, align 8
  br label %77

74:                                               ; preds = %68
  %75 = getelementptr inbounds nuw %struct.ExprEvalStep, ptr %15, i32 0, i32 3
  %76 = getelementptr inbounds nuw %struct.anon.15, ptr %75, i32 0, i32 0
  store ptr @plpgsql_param_eval_var, ptr %76, align 8
  br label %77

77:                                               ; preds = %74, %71
  br label %78

78:                                               ; preds = %77, %65
  call void @llvm.lifetime.end.p0(i64 1, ptr %16) #12
  br label %121

79:                                               ; preds = %5
  %80 = load ptr, ptr %14, align 8
  %81 = getelementptr inbounds nuw %struct.PLpgSQL_datum, ptr %80, i32 0, i32 0
  %82 = load i32, ptr %81, align 4
  %83 = icmp eq i32 %82, 3
  br i1 %83, label %84, label %87

84:                                               ; preds = %79
  %85 = getelementptr inbounds nuw %struct.ExprEvalStep, ptr %15, i32 0, i32 3
  %86 = getelementptr inbounds nuw %struct.anon.15, ptr %85, i32 0, i32 0
  store ptr @plpgsql_param_eval_recfield, ptr %86, align 8
  br label %120

87:                                               ; preds = %79
  %88 = load ptr, ptr %14, align 8
  %89 = getelementptr inbounds nuw %struct.PLpgSQL_datum, ptr %88, i32 0, i32 0
  %90 = load i32, ptr %89, align 4
  %91 = icmp eq i32 %90, 4
  br i1 %91, label %92, label %107

92:                                               ; preds = %87
  %93 = load ptr, ptr %14, align 8
  %94 = getelementptr inbounds nuw %struct.PLpgSQL_var, ptr %93, i32 0, i32 7
  %95 = load ptr, ptr %94, align 8
  %96 = getelementptr inbounds nuw %struct.PLpgSQL_type, ptr %95, i32 0, i32 3
  %97 = load i16, ptr %96, align 8
  %98 = sext i16 %97 to i32
  %99 = icmp eq i32 %98, -1
  br i1 %99, label %100, label %103

100:                                              ; preds = %92
  %101 = getelementptr inbounds nuw %struct.ExprEvalStep, ptr %15, i32 0, i32 3
  %102 = getelementptr inbounds nuw %struct.anon.15, ptr %101, i32 0, i32 0
  store ptr @plpgsql_param_eval_generic_ro, ptr %102, align 8
  br label %106

103:                                              ; preds = %92
  %104 = getelementptr inbounds nuw %struct.ExprEvalStep, ptr %15, i32 0, i32 3
  %105 = getelementptr inbounds nuw %struct.anon.15, ptr %104, i32 0, i32 0
  store ptr @plpgsql_param_eval_generic, ptr %105, align 8
  br label %106

106:                                              ; preds = %103, %100
  br label %119

107:                                              ; preds = %87
  %108 = load ptr, ptr %14, align 8
  %109 = getelementptr inbounds nuw %struct.PLpgSQL_datum, ptr %108, i32 0, i32 0
  %110 = load i32, ptr %109, align 4
  %111 = icmp eq i32 %110, 2
  br i1 %111, label %112, label %115

112:                                              ; preds = %107
  %113 = getelementptr inbounds nuw %struct.ExprEvalStep, ptr %15, i32 0, i32 3
  %114 = getelementptr inbounds nuw %struct.anon.15, ptr %113, i32 0, i32 0
  store ptr @plpgsql_param_eval_generic_ro, ptr %114, align 8
  br label %118

115:                                              ; preds = %107
  %116 = getelementptr inbounds nuw %struct.ExprEvalStep, ptr %15, i32 0, i32 3
  %117 = getelementptr inbounds nuw %struct.anon.15, ptr %116, i32 0, i32 0
  store ptr @plpgsql_param_eval_generic, ptr %117, align 8
  br label %118

118:                                              ; preds = %115, %112
  br label %119

119:                                              ; preds = %118, %106
  br label %120

120:                                              ; preds = %119, %84
  br label %121

121:                                              ; preds = %120, %78
  %122 = load ptr, ptr %12, align 8
  %123 = getelementptr inbounds nuw %struct.ExprEvalStep, ptr %15, i32 0, i32 3
  %124 = getelementptr inbounds nuw %struct.anon.15, ptr %123, i32 0, i32 1
  store ptr %122, ptr %124, align 8
  %125 = load ptr, ptr %7, align 8
  %126 = getelementptr inbounds nuw %struct.ExprEvalStep, ptr %15, i32 0, i32 3
  %127 = getelementptr inbounds nuw %struct.anon.15, ptr %126, i32 0, i32 2
  store ptr %125, ptr %127, align 8
  %128 = load ptr, ptr %7, align 8
  %129 = getelementptr inbounds nuw %struct.Param, ptr %128, i32 0, i32 2
  %130 = load i32, ptr %129, align 4
  %131 = getelementptr inbounds nuw %struct.ExprEvalStep, ptr %15, i32 0, i32 3
  %132 = getelementptr inbounds nuw %struct.anon.15, ptr %131, i32 0, i32 3
  store i32 %130, ptr %132, align 8
  %133 = load ptr, ptr %7, align 8
  %134 = getelementptr inbounds nuw %struct.Param, ptr %133, i32 0, i32 3
  %135 = load i32, ptr %134, align 4
  %136 = getelementptr inbounds nuw %struct.ExprEvalStep, ptr %15, i32 0, i32 3
  %137 = getelementptr inbounds nuw %struct.anon.15, ptr %136, i32 0, i32 4
  store i32 %135, ptr %137, align 4
  %138 = load ptr, ptr %8, align 8
  call void @ExprEvalPushStep(ptr noundef %138, ptr noundef %15)
  call void @llvm.lifetime.end.p0(i64 64, ptr %15) #12
  call void @llvm.lifetime.end.p0(i64 8, ptr %14) #12
  call void @llvm.lifetime.end.p0(i64 4, ptr %13) #12
  call void @llvm.lifetime.end.p0(i64 8, ptr %12) #12
  call void @llvm.lifetime.end.p0(i64 8, ptr %11) #12
  ret void
}