; Function Attrs: nounwind uwtable
define internal void @plpgsql_param_compile(ptr noundef readonly captures(none) %0, ptr noundef %1, ptr noundef %2, ptr noundef %3, ptr noundef %4) #0 {
  %6 = alloca %struct.ExprEvalStep, align 8
  call void @llvm.lifetime.start.p0(i64 64, ptr nonnull %6) #12
  %7 = getelementptr inbounds nuw i8, ptr %0, i64 8
  %8 = load ptr, ptr %7, align 8
  %9 = getelementptr inbounds nuw i8, ptr %0, i64 40
  %10 = load ptr, ptr %9, align 8
  %11 = getelementptr inbounds nuw i8, ptr %1, i64 8
  %12 = load i32, ptr %11, align 4
  %13 = add i32 %12, -1
  %14 = getelementptr inbounds nuw i8, ptr %8, i64 112
  %15 = load ptr, ptr %14, align 8
  %16 = sext i32 %13 to i64
  %17 = getelementptr inbounds ptr, ptr %15, i64 %16
  %18 = load ptr, ptr %17, align 8
  store i64 51, ptr %6, align 8
  %19 = getelementptr inbounds nuw i8, ptr %6, i64 8
  store ptr %3, ptr %19, align 8
  %20 = getelementptr inbounds nuw i8, ptr %6, i64 16
  store ptr %4, ptr %20, align 8
  %21 = load i32, ptr %18, align 4
  switch i32 %21, label %53 [
    i32 0, label %22
    i32 3, label %40
    i32 4, label %42
    i32 2, label %51
  ]

22:                                               ; preds = %5
  %23 = getelementptr inbounds nuw i8, ptr %18, i64 32
  %24 = load ptr, ptr %23, align 8
  %25 = getelementptr inbounds nuw i8, ptr %24, i64 16
  %26 = load i16, ptr %25, align 8
  %27 = icmp eq i16 %26, -1
  br i1 %27, label %28, label %.critedge

28:                                               ; preds = %22
  %29 = getelementptr inbounds nuw i8, ptr %10, i64 32
  %30 = load i32, ptr %29, align 8
  %31 = icmp eq i32 %13, %30
  br i1 %31, label %32, label %37

32:                                               ; preds = %28
  %33 = getelementptr inbounds nuw i8, ptr %10, i64 56
  %34 = load ptr, ptr %33, align 8
  %.not = icmp eq ptr %34, null
  br i1 %.not, label %37, label %35

35:                                               ; preds = %32
  %36 = getelementptr inbounds nuw i8, ptr %6, i64 24
  store ptr @plpgsql_param_eval_var_check, ptr %36, align 8
  br label %55

37:                                               ; preds = %28, %32
  %38 = getelementptr inbounds nuw i8, ptr %6, i64 24
  store ptr @plpgsql_param_eval_var_ro, ptr %38, align 8
  br label %55

.critedge:                                        ; preds = %22
  %39 = getelementptr inbounds nuw i8, ptr %6, i64 24
  store ptr @plpgsql_param_eval_var, ptr %39, align 8
  br label %55

40:                                               ; preds = %5
  %41 = getelementptr inbounds nuw i8, ptr %6, i64 24
  store ptr @plpgsql_param_eval_recfield, ptr %41, align 8
  br label %55

42:                                               ; preds = %5
  %43 = getelementptr inbounds nuw i8, ptr %18, i64 32
  %44 = load ptr, ptr %43, align 8
  %45 = getelementptr inbounds nuw i8, ptr %44, i64 16
  %46 = load i16, ptr %45, align 8
  %47 = icmp eq i16 %46, -1
  %48 = getelementptr inbounds nuw i8, ptr %6, i64 24
  br i1 %47, label %49, label %50

49:                                               ; preds = %42
  store ptr @plpgsql_param_eval_generic_ro, ptr %48, align 8
  br label %55

50:                                               ; preds = %42
  store ptr @plpgsql_param_eval_generic, ptr %48, align 8
  br label %55

51:                                               ; preds = %5
  %52 = getelementptr inbounds nuw i8, ptr %6, i64 24
  store ptr @plpgsql_param_eval_generic_ro, ptr %52, align 8
  br label %55

53:                                               ; preds = %5
  %54 = getelementptr inbounds nuw i8, ptr %6, i64 24
  store ptr @plpgsql_param_eval_generic, ptr %54, align 8
  br label %55

55:                                               ; preds = %35, %.critedge, %37, %40, %51, %53, %49, %50
  %56 = getelementptr inbounds nuw i8, ptr %6, i64 32
  store ptr %10, ptr %56, align 8
  %57 = getelementptr inbounds nuw i8, ptr %6, i64 40
  store ptr %1, ptr %57, align 8
  %58 = getelementptr inbounds nuw i8, ptr %6, i64 48
  store i32 %12, ptr %58, align 8
  %59 = getelementptr inbounds nuw i8, ptr %1, i64 12
  %60 = load i32, ptr %59, align 4
  %61 = getelementptr inbounds nuw i8, ptr %6, i64 52
  store i32 %60, ptr %61, align 4
  call void @ExprEvalPushStep(ptr noundef %2, ptr noundef nonnull %6) #12
  call void @llvm.lifetime.end.p0(i64 64, ptr nonnull %6) #12
  ret void
}